target datalayout = "e-m:e-p270:32:32-p271:32:32-p272:64:64-i64:64-i128:128-f80:128-n8:16:32:64-S128"
target triple = "x86_64-pc-linux-gnu"

%"struct.cv::iPow_SIMD.6" = type { i8 }

; Function Attrs: mustprogress nounwind uwtable
define linkonce_odr hidden noundef i32 @_ZN2cv9iPow_SIMDIffEclEPKfPfii(ptr noundef nonnull align 1 dereferenceable(1) %0, ptr noundef %1, ptr noundef %2, i32 noundef %3, i32 noundef %4) #9 comdat align 2 {
  %6 = alloca ptr, align 8
  %7 = alloca ptr, align 8
  %8 = alloca ptr, align 8
  %9 = alloca i32, align 4
  %10 = alloca i32, align 4
  store ptr %0, ptr %6, align 8, !tbaa !205
  store ptr %1, ptr %7, align 8, !tbaa !40
  store ptr %2, ptr %8, align 8, !tbaa !40
  store i32 %3, ptr %9, align 4, !tbaa !8
  store i32 %4, ptr %10, align 4, !tbaa !8
  ret i32 0
}

; Function Attrs: mustprogress uwtable
define internal void @_ZN2cvL6iPow_fIfEEvPKT_PS1_ii(ptr noundef %0, ptr noundef %1, i32 noundef %2, i32 noundef %3) #4 {
  %5 = alloca ptr, align 8
  %6 = alloca ptr, align 8
  %7 = alloca i32, align 4
  %8 = alloca i32, align 4
  %9 = alloca %"struct.cv::iPow_SIMD.6", align 1
  %10 = alloca i32, align 4
  %11 = alloca i32, align 4
  %12 = alloca float, align 4
  %13 = alloca float, align 4
  %14 = alloca i32, align 4
  store ptr %0, ptr %5, align 8, !tbaa !40
  store ptr %1, ptr %6, align 8, !tbaa !40
  store i32 %2, ptr %7, align 4, !tbaa !8
  store i32 %3, ptr %8, align 4, !tbaa !8
  call void @llvm.lifetime.start.p0(i64 1, ptr %9) #3
  call void @llvm.lifetime.start.p0(i64 4, ptr %10) #3
  %15 = load ptr, ptr %5, align 8, !tbaa !40
  %16 = load ptr, ptr %6, align 8, !tbaa !40
  %17 = load i32, ptr %7, align 4, !tbaa !8
  %18 = load i32, ptr %8, align 4, !tbaa !8
  %19 = call noundef i32 @_ZN2cv9iPow_SIMDIffEclEPKfPfii(ptr noundef nonnull align 1 dereferenceable(1) %9, ptr noundef %15, ptr noundef %16, i32 noundef %17, i32 noundef %18)
  store i32 %19, ptr %10, align 4, !tbaa !8
  call void @llvm.lifetime.start.p0(i64 4, ptr %11) #3
  %20 = load i32, ptr %8, align 4, !tbaa !8
  %21 = call i32 @llvm.abs.i32(i32 %20, i1 true)
  store i32 %21, ptr %11, align 4, !tbaa !8
  br label %22

22:                                               ; preds = %65, %4
  %23 = load i32, ptr %10, align 4, !tbaa !8
  %24 = load i32, ptr %7, align 4, !tbaa !8
  %25 = icmp slt i32 %23, %24
  br i1 %25, label %26, label %68

26:                                               ; preds = %22
  call void @llvm.lifetime.start.p0(i64 4, ptr %12) #3
  store float 1.000000e+00, ptr %12, align 4, !tbaa !3
  call void @llvm.lifetime.start.p0(i64 4, ptr %13) #3
  %27 = load ptr, ptr %5, align 8, !tbaa !40
  %28 = load i32, ptr %10, align 4, !tbaa !8
  %29 = sext i32 %28 to i64
  %30 = getelementptr inbounds float, ptr %27, i64 %29
  %31 = load float, ptr %30, align 4, !tbaa !3
  store float %31, ptr %13, align 4, !tbaa !3
  call void @llvm.lifetime.start.p0(i64 4, ptr %14) #3
  %32 = load i32, ptr %11, align 4, !tbaa !8
  store i32 %32, ptr %14, align 4, !tbaa !8
  %33 = load i32, ptr %8, align 4, !tbaa !8
  %34 = icmp slt i32 %33, 0
  br i1 %34, label %35, label %38

35:                                               ; preds = %26
  %36 = load float, ptr %13, align 4, !tbaa !3
  %37 = fdiv float 1.000000e+00, %36
  store float %37, ptr %13, align 4, !tbaa !3
  br label %38

38:                                               ; preds = %35, %26
  br label %39

39:                                               ; preds = %50, %38
  %40 = load i32, ptr %14, align 4, !tbaa !8
  %41 = icmp sgt i32 %40, 1
  br i1 %41, label %42, label %56

42:                                               ; preds = %39
  %43 = load i32, ptr %14, align 4, !tbaa !8
  %44 = and i32 %43, 1
  %45 = icmp ne i32 %44, 0
  br i1 %45, label %46, label %50

46:                                               ; preds = %42
  %47 = load float, ptr %13, align 4, !tbaa !3
  %48 = load float, ptr %12, align 4, !tbaa !3
  %49 = fmul float %48, %47
  store float %49, ptr %12, align 4, !tbaa !3
  br label %50

50:                                               ; preds = %46, %42
  %51 = load float, ptr %13, align 4, !tbaa !3
  %52 = load float, ptr %13, align 4, !tbaa !3
  %53 = fmul float %52, %51
  store float %53, ptr %13, align 4, !tbaa !3
  %54 = load i32, ptr %14, align 4, !tbaa !8
  %55 = ashr i32 %54, 1
  store i32 %55, ptr %14, align 4, !tbaa !8
  br label %39, !llvm.loop !203

56:                                               ; preds = %39
  %57 = load float, ptr %13, align 4, !tbaa !3
  %58 = load float, ptr %12, align 4, !tbaa !3
  %59 = fmul float %58, %57
  store float %59, ptr %12, align 4, !tbaa !3
  %60 = load float, ptr %12, align 4, !tbaa !3
  %61 = load ptr, ptr %6, align 8, !tbaa !40
  %62 = load i32, ptr %10, align 4, !tbaa !8
  %63 = sext i32 %62 to i64
  %64 = getelementptr inbounds float, ptr %61, i64 %63
  store float %60, ptr %64, align 4, !tbaa !3
  call void @llvm.lifetime.end.p0(i64 4, ptr %14) #3
  call void @llvm.lifetime.end.p0(i64 4, ptr %13) #3
  call void @llvm.lifetime.end.p0(i64 4, ptr %12) #3
  br label %65

65:                                               ; preds = %56
  %66 = load i32, ptr %10, align 4, !tbaa !8
  %67 = add nsw i32 %66, 1
  store i32 %67, ptr %10, align 4, !tbaa !8
  br label %22, !llvm.loop !204

68:                                               ; preds = %22
  call void @llvm.lifetime.end.p0(i64 4, ptr %11) #3
  call void @llvm.lifetime.end.p0(i64 4, ptr %10) #3
  call void @llvm.lifetime.end.p0(i64 1, ptr %9) #3
  ret void
}

; Function Attrs: mustprogress uwtable
define internal void @_ZN2cvL7iPow32fEPKfPfii(ptr noundef %0, ptr noundef %1, i32 noundef %2, i32 noundef %3) #4 {
  %5 = alloca ptr, align 8
  %6 = alloca ptr, align 8
  %7 = alloca i32, align 4
  %8 = alloca i32, align 4
  store ptr %0, ptr %5, align 8, !tbaa !40
  store ptr %1, ptr %6, align 8, !tbaa !40
  store i32 %2, ptr %7, align 4, !tbaa !8
  store i32 %3, ptr %8, align 4, !tbaa !8
  %9 = load ptr, ptr %5, align 8, !tbaa !40
  %10 = load ptr, ptr %6, align 8, !tbaa !40
  %11 = load i32, ptr %7, align 4, !tbaa !8
  %12 = load i32, ptr %8, align 4, !tbaa !8
  call void @_ZN2cvL6iPow_fIfEEvPKT_PS1_ii(ptr noundef %9, ptr noundef %10, i32 noundef %11, i32 noundef %12)
  ret void
}